; Function Attrs: mustprogress uwtable
define void @_ZN5arrow8internal19DictionaryMemoTable11GetOrInsertEPKNS_10BinaryTypeESt17basic_string_viewIcSt11char_traitsIcEEPi(ptr dead_on_unwind noalias writable sret(%"class.arrow::Status") align 8 %0, ptr noundef nonnull readonly align 8 captures(none) dereferenceable(8) %1, ptr noundef readnone captures(none) %2, i64 %3, ptr %4, ptr noundef %5) local_unnamed_addr #1 align 2 {
  %7 = alloca %class.anon.227, align 1
  %8 = alloca %class.anon.229, align 1
  %9 = load ptr, ptr %1, align 8, !tbaa !41
  %10 = getelementptr inbounds nuw i8, ptr %9, i64 24
  %11 = load ptr, ptr %10, align 8, !tbaa !84, !noalias !642
  %12 = trunc i64 %3 to i32
  call void @llvm.lifetime.start.p0(i64 1, ptr nonnull %7) #26, !noalias !645
  call void @llvm.lifetime.start.p0(i64 1, ptr nonnull %8) #26, !noalias !645
  call void @_ZN5arrow8internal15BinaryMemoTableINS_13BinaryBuilderEE11GetOrInsertIZNS3_11GetOrInsertEPKviPiEUliE_ZNS3_11GetOrInsertES6_iS7_EUliE0_EENS_6StatusES6_iOT_OT0_S7_(ptr dead_on_unwind writable sret(%"class.arrow::Status") align 8 %0, ptr noundef nonnull align 8 dereferenceable(356) %11, ptr noundef %4, i32 noundef %12, ptr noundef nonnull align 1 dereferenceable(1) %7, ptr noundef nonnull align 1 dereferenceable(1) %8, ptr noundef %5)
  call void @llvm.lifetime.end.p0(i64 1, ptr nonnull %8) #26, !noalias !645
  call void @llvm.lifetime.end.p0(i64 1, ptr nonnull %7) #26, !noalias !645
  ret void
}